#include <math.h>
#include <stdio.h>
#include <stdlib.h>
#include <string.h>


int hefa(char*a){
	for (;*a=='_'||(*a>='A' &&*a<='Z')||(*a>='a' &&*a<='z')||(*a>='0' &&*a<='9')||*a=='\0';a++)
	{
		if (*a=='\0')
		{
			printf("1\n");
			return 0;
		}else if (!(*a=='_'||(*a>='A' &&*a<='Z')||(*a>='a' &&*a<='z')||(*a>='0' &&*a<='9')))
		{
			printf("0\n");
			return 0;
		}
	}
	printf("0\n");
	return 0;
}
int main(){
	char zifu[2000000];
	char *p;
	int i,n;
	scanf("%d",&n);
	getchar();
	for (i=0;i<n;i++)
	{
		gets(zifu);
		p=zifu;
		if (*p=='_'||(*p>='A' &&*p<='Z')||(*p>='a' &&*p<='z'))
		{
			hefa(p);
		} 
		else
		{
			printf("0\n");
		}
	}
	return 0;
}
