; ModuleID = '58/230.c'
source_filename = "58/230.c"
target datalayout = "e-m:e-p270:32:32-p271:32:32-p272:64:64-i64:64-f80:128-n8:16:32:64-S128"
target triple = "x86_64-pc-linux-gnu"

@.str = private unnamed_addr constant [3 x i8] c"1\0A\00", align 1
@.str.1 = private unnamed_addr constant [3 x i8] c"0\0A\00", align 1
@.str.2 = private unnamed_addr constant [3 x i8] c"%d\00", align 1

; Function Attrs: noinline nounwind uwtable
define dso_local i32 @hefa(i8* %0) #0 {
  %2 = alloca i32, align 4
  %3 = alloca i8*, align 8
  store i8* %0, i8** %3, align 8
  br label %4

4:                                                ; preds = %92, %1
  %5 = load i8*, i8** %3, align 8
  %6 = load i8, i8* %5, align 1
  %7 = sext i8 %6 to i32
  %8 = icmp eq i32 %7, 95
  br i1 %8, label %44, label %9

9:                                                ; preds = %4
  %10 = load i8*, i8** %3, align 8
  %11 = load i8, i8* %10, align 1
  %12 = sext i8 %11 to i32
  %13 = icmp sge i32 %12, 65
  br i1 %13, label %14, label %19

14:                                               ; preds = %9
  %15 = load i8*, i8** %3, align 8
  %16 = load i8, i8* %15, align 1
  %17 = sext i8 %16 to i32
  %18 = icmp sle i32 %17, 90
  br i1 %18, label %44, label %19

19:                                               ; preds = %14, %9
  %20 = load i8*, i8** %3, align 8
  %21 = load i8, i8* %20, align 1
  %22 = sext i8 %21 to i32
  %23 = icmp sge i32 %22, 97
  br i1 %23, label %24, label %29

24:                                               ; preds = %19
  %25 = load i8*, i8** %3, align 8
  %26 = load i8, i8* %25, align 1
  %27 = sext i8 %26 to i32
  %28 = icmp sle i32 %27, 122
  br i1 %28, label %44, label %29

29:                                               ; preds = %24, %19
  %30 = load i8*, i8** %3, align 8
  %31 = load i8, i8* %30, align 1
  %32 = sext i8 %31 to i32
  %33 = icmp sge i32 %32, 48
  br i1 %33, label %34, label %39

34:                                               ; preds = %29
  %35 = load i8*, i8** %3, align 8
  %36 = load i8, i8* %35, align 1
  %37 = sext i8 %36 to i32
  %38 = icmp sle i32 %37, 57
  br i1 %38, label %44, label %39

39:                                               ; preds = %34, %29
  %40 = load i8*, i8** %3, align 8
  %41 = load i8, i8* %40, align 1
  %42 = sext i8 %41 to i32
  %43 = icmp eq i32 %42, 0
  br label %44

44:                                               ; preds = %39, %34, %24, %14, %4
  %45 = phi i1 [ true, %34 ], [ true, %24 ], [ true, %14 ], [ true, %4 ], [ %43, %39 ]
  br i1 %45, label %46, label %95

46:                                               ; preds = %44
  %47 = load i8*, i8** %3, align 8
  %48 = load i8, i8* %47, align 1
  %49 = sext i8 %48 to i32
  %50 = icmp eq i32 %49, 0
  br i1 %50, label %51, label %53

51:                                               ; preds = %46
  %52 = call i32 (i8*, ...) @printf(i8* getelementptr inbounds ([3 x i8], [3 x i8]* @.str, i64 0, i64 0))
  store i32 0, i32* %2, align 4
  br label %97

53:                                               ; preds = %46
  %54 = load i8*, i8** %3, align 8
  %55 = load i8, i8* %54, align 1
  %56 = sext i8 %55 to i32
  %57 = icmp eq i32 %56, 95
  br i1 %57, label %90, label %58

58:                                               ; preds = %53
  %59 = load i8*, i8** %3, align 8
  %60 = load i8, i8* %59, align 1
  %61 = sext i8 %60 to i32
  %62 = icmp sge i32 %61, 65
  br i1 %62, label %63, label %68

63:                                               ; preds = %58
  %64 = load i8*, i8** %3, align 8
  %65 = load i8, i8* %64, align 1
  %66 = sext i8 %65 to i32
  %67 = icmp sle i32 %66, 90
  br i1 %67, label %90, label %68

68:                                               ; preds = %63, %58
  %69 = load i8*, i8** %3, align 8
  %70 = load i8, i8* %69, align 1
  %71 = sext i8 %70 to i32
  %72 = icmp sge i32 %71, 97
  br i1 %72, label %73, label %78

73:                                               ; preds = %68
  %74 = load i8*, i8** %3, align 8
  %75 = load i8, i8* %74, align 1
  %76 = sext i8 %75 to i32
  %77 = icmp sle i32 %76, 122
  br i1 %77, label %90, label %78

78:                                               ; preds = %73, %68
  %79 = load i8*, i8** %3, align 8
  %80 = load i8, i8* %79, align 1
  %81 = sext i8 %80 to i32
  %82 = icmp sge i32 %81, 48
  br i1 %82, label %83, label %88

83:                                               ; preds = %78
  %84 = load i8*, i8** %3, align 8
  %85 = load i8, i8* %84, align 1
  %86 = sext i8 %85 to i32
  %87 = icmp sle i32 %86, 57
  br i1 %87, label %90, label %88

88:                                               ; preds = %83, %78
  %89 = call i32 (i8*, ...) @printf(i8* getelementptr inbounds ([3 x i8], [3 x i8]* @.str.1, i64 0, i64 0))
  store i32 0, i32* %2, align 4
  br label %97

90:                                               ; preds = %83, %73, %63, %53
  br label %91

91:                                               ; preds = %90
  br label %92

92:                                               ; preds = %91
  %93 = load i8*, i8** %3, align 8
  %94 = getelementptr inbounds i8, i8* %93, i32 1
  store i8* %94, i8** %3, align 8
  br label %4

95:                                               ; preds = %44
  %96 = call i32 (i8*, ...) @printf(i8* getelementptr inbounds ([3 x i8], [3 x i8]* @.str.1, i64 0, i64 0))
  store i32 0, i32* %2, align 4
  br label %97

97:                                               ; preds = %95, %88, %51
  %98 = load i32, i32* %2, align 4
  ret i32 %98
}

declare dso_local i32 @printf(i8*, ...) #1

; Function Attrs: noinline nounwind uwtable
define dso_local i32 @main() #0 {
  %1 = alloca i32, align 4
  %2 = alloca [2000000 x i8], align 16
  %3 = alloca i8*, align 8
  %4 = alloca i32, align 4
  %5 = alloca i32, align 4
  store i32 0, i32* %1, align 4
  %6 = call i32 (i8*, ...) @__isoc99_scanf(i8* getelementptr inbounds ([3 x i8], [3 x i8]* @.str.2, i64 0, i64 0), i32* %5)
  %7 = call i32 @getchar()
  store i32 0, i32* %4, align 4
  br label %8

8:                                                ; preds = %46, %0
  %9 = load i32, i32* %4, align 4
  %10 = load i32, i32* %5, align 4
  %11 = icmp slt i32 %9, %10
  br i1 %11, label %12, label %49

12:                                               ; preds = %8
  %13 = getelementptr inbounds [2000000 x i8], [2000000 x i8]* %2, i64 0, i64 0
  %14 = call i32 (i8*, ...) bitcast (i32 (...)* @gets to i32 (i8*, ...)*)(i8* %13)
  %15 = getelementptr inbounds [2000000 x i8], [2000000 x i8]* %2, i64 0, i64 0
  store i8* %15, i8** %3, align 8
  %16 = load i8*, i8** %3, align 8
  %17 = load i8, i8* %16, align 1
  %18 = sext i8 %17 to i32
  %19 = icmp eq i32 %18, 95
  br i1 %19, label %40, label %20

20:                                               ; preds = %12
  %21 = load i8*, i8** %3, align 8
  %22 = load i8, i8* %21, align 1
  %23 = sext i8 %22 to i32
  %24 = icmp sge i32 %23, 65
  br i1 %24, label %25, label %30

25:                                               ; preds = %20
  %26 = load i8*, i8** %3, align 8
  %27 = load i8, i8* %26, align 1
  %28 = sext i8 %27 to i32
  %29 = icmp sle i32 %28, 90
  br i1 %29, label %40, label %30

30:                                               ; preds = %25, %20
  %31 = load i8*, i8** %3, align 8
  %32 = load i8, i8* %31, align 1
  %33 = sext i8 %32 to i32
  %34 = icmp sge i32 %33, 97
  br i1 %34, label %35, label %43

35:                                               ; preds = %30
  %36 = load i8*, i8** %3, align 8
  %37 = load i8, i8* %36, align 1
  %38 = sext i8 %37 to i32
  %39 = icmp sle i32 %38, 122
  br i1 %39, label %40, label %43

40:                                               ; preds = %35, %25, %12
  %41 = load i8*, i8** %3, align 8
  %42 = call i32 @hefa(i8* %41)
  br label %45

43:                                               ; preds = %35, %30
  %44 = call i32 (i8*, ...) @printf(i8* getelementptr inbounds ([3 x i8], [3 x i8]* @.str.1, i64 0, i64 0))
  br label %45

45:                                               ; preds = %43, %40
  br label %46

46:                                               ; preds = %45
  %47 = load i32, i32* %4, align 4
  %48 = add nsw i32 %47, 1
  store i32 %48, i32* %4, align 4
  br label %8

49:                                               ; preds = %8
  ret i32 0
}

declare dso_local i32 @__isoc99_scanf(i8*, ...) #1

declare dso_local i32 @getchar() #1

declare dso_local i32 @gets(...) #1


!llvm.module.flags = !{!0}
!llvm.ident = !{!1}

!0 = !{i32 1, !"wchar_size", i32 4}
!1 = !{!"clang version 10.0.0-4ubuntu1 "}
